; ModuleID = '56/860.c'
source_filename = "56/860.c"
target datalayout = "e-m:e-p270:32:32-p271:32:32-p272:64:64-i64:64-f80:128-n8:16:32:64-S128"
target triple = "x86_64-pc-linux-gnu"

@.str = private unnamed_addr constant [3 x i8] c"%d\00", align 1

; Function Attrs: noinline nounwind uwtable
define dso_local void @main() #0 {
  %1 = alloca i32, align 4
  %2 = alloca i32, align 4
  %3 = alloca i32, align 4
  %4 = alloca [5 x i32], align 16
  store i32 0, i32* %3, align 4
  store i32 0, i32* %1, align 4
  br label %5

5:                                                ; preds = %8, %0
  %6 = call i32 @getchar()
  store i32 %6, i32* %2, align 4
  %7 = icmp ne i32 %6, 10
  br i1 %7, label %8, label %18

8:                                                ; preds = %5
  %9 = load i32, i32* %2, align 4
  %10 = sub nsw i32 %9, 48
  %11 = load i32, i32* %3, align 4
  %12 = sext i32 %11 to i64
  %13 = getelementptr inbounds [5 x i32], [5 x i32]* %4, i64 0, i64 %12
  store i32 %10, i32* %13, align 4
  %14 = load i32, i32* %3, align 4
  %15 = add nsw i32 %14, 1
  store i32 %15, i32* %3, align 4
  %16 = load i32, i32* %1, align 4
  %17 = add nsw i32 %16, 1
  store i32 %17, i32* %1, align 4
  br label %5

18:                                               ; preds = %5
  %19 = load i32, i32* %1, align 4
  %20 = sub nsw i32 %19, 1
  store i32 %20, i32* %3, align 4
  br label %21

21:                                               ; preds = %30, %18
  %22 = load i32, i32* %3, align 4
  %23 = icmp sge i32 %22, 0
  br i1 %23, label %24, label %33

24:                                               ; preds = %21
  %25 = load i32, i32* %3, align 4
  %26 = sext i32 %25 to i64
  %27 = getelementptr inbounds [5 x i32], [5 x i32]* %4, i64 0, i64 %26
  %28 = load i32, i32* %27, align 4
  %29 = call i32 (i8*, ...) @printf(i8* getelementptr inbounds ([3 x i8], [3 x i8]* @.str, i64 0, i64 0), i32 %28)
  br label %30

30:                                               ; preds = %24
  %31 = load i32, i32* %3, align 4
  %32 = add nsw i32 %31, -1
  store i32 %32, i32* %3, align 4
  br label %21

33:                                               ; preds = %21
  ret void
}

declare dso_local i32 @getchar() #1

declare dso_local i32 @printf(i8*, ...) #1


!llvm.module.flags = !{!0}
!llvm.ident = !{!1}

!0 = !{i32 1, !"wchar_size", i32 4}
!1 = !{!"clang version 10.0.0-4ubuntu1 "}
